; Function Attrs: mustprogress uwtable
define void @_ZN3zmq8reaper_t14process_reapedEv(ptr noundef nonnull align 8 dereferenceable(240) %this) unnamed_addr #0 align 2 {
entry:
  %_sockets = getelementptr inbounds i8, ptr %this, i64 224
  %0 = load i32, ptr %_sockets, align 8
  %dec = add nsw i32 %0, -1
  store i32 %dec, ptr %_sockets, align 8
  %tobool.not = icmp eq i32 %dec, 0
  br i1 %tobool.not, label %land.lhs.true, label %if.end

land.lhs.true:                                    ; preds = %entry
  %_terminating = getelementptr inbounds i8, ptr %this, i64 228
  %1 = load i8, ptr %_terminating, align 4
  %2 = and i8 %1, 1
  %tobool3.not = icmp eq i8 %2, 0
  br i1 %tobool3.not, label %if.end, label %if.then

if.then:                                          ; preds = %land.lhs.true
  tail call void @_ZN3zmq8object_t9send_doneEv(ptr noundef nonnull align 8 dereferenceable(20) %this)
  %_poller = getelementptr inbounds i8, ptr %this, i64 216
  %3 = load ptr, ptr %_poller, align 8
  %_mailbox_handle = getelementptr inbounds i8, ptr %this, i64 208
  %4 = load ptr, ptr %_mailbox_handle, align 8
  tail call void @_ZN3zmq7epoll_t5rm_fdEPv(ptr noundef nonnull align 8 dereferenceable(224) %3, ptr noundef %4)
  %5 = load ptr, ptr %_poller, align 8
  tail call void @_ZN3zmq7epoll_t4stopEv(ptr noundef nonnull align 8 dereferenceable(224) %5)
  br label %if.end

if.end:                                           ; preds = %if.then, %land.lhs.true, %entry
  ret void
}